target datalayout = "e-m:e-p270:32:32-p271:32:32-p272:64:64-i64:64-i128:128-f80:128-n8:16:32:64-S128"
target triple = "x86_64-pc-linux-gnu"

%"class.cvc5::internal::NodeTemplate" = type { ptr }
%"class.cvc5::internal::expr::NodeValue" = type { i64, i64, ptr, [0 x ptr] }

; Function Attrs: inlinehint mustprogress nounwind uwtable
define linkonce_odr hidden noundef i32 @_ZNK4cvc58internal12NodeTemplateILb0EE7getKindEv(ptr noundef nonnull align 8 dereferenceable(8) %0) #8 comdat align 2 {
  %2 = alloca ptr, align 8
  store ptr %0, ptr %2, align 8, !tbaa !8
  %3 = load ptr, ptr %2, align 8
  call void @_ZNK4cvc58internal12NodeTemplateILb0EE21assertTNodeNotExpiredEv(ptr noundef nonnull align 8 dereferenceable(8) %3)
  %4 = getelementptr inbounds nuw %"class.cvc5::internal::NodeTemplate", ptr %3, i32 0, i32 0
  %5 = load ptr, ptr %4, align 8, !tbaa !18
  %6 = getelementptr inbounds nuw %"class.cvc5::internal::expr::NodeValue", ptr %5, i32 0, i32 1
  %7 = load i64, ptr %6, align 8
  %8 = and i64 %7, 1023
  %9 = trunc i64 %8 to i32
  ret i32 %9
}

; Function Attrs: inlinehint mustprogress nounwind uwtable
define linkonce_odr hidden void @_ZNK4cvc58internal12NodeTemplateILb0EE21assertTNodeNotExpiredEv(ptr noundef nonnull align 8 dereferenceable(8) %0) #8 comdat align 2 {
  %2 = alloca ptr, align 8
  store ptr %0, ptr %2, align 8, !tbaa !8
  ret void
}

; Function Attrs: mustprogress nounwind uwtable
define linkonce_odr hidden void @_ZN4cvc58internal12NodeTemplateILb0EED2Ev(ptr noundef nonnull align 8 dereferenceable(8) %0) unnamed_addr #4 comdat align 2 {
  %2 = alloca ptr, align 8
  store ptr %0, ptr %2, align 8, !tbaa !8
  ret void
}

; Function Attrs: mustprogress uwtable
define hidden noundef zeroext i1 @_ZN4cvc58internal14RtfTermContext21hasNestedTermChildrenENS0_12NodeTemplateILb0EEE(ptr noundef %0) #5 align 2 {
  %2 = alloca ptr, align 8
  %3 = alloca i32, align 4
  store ptr %0, ptr %2, align 8, !tbaa !8
  call void @llvm.lifetime.start.p0(i64 4, ptr %3) #3
  %4 = call noundef i32 @_ZNK4cvc58internal12NodeTemplateILb0EE7getKindEv(ptr noundef nonnull align 8 dereferenceable(8) %0)
  store i32 %4, ptr %3, align 4, !tbaa !16
  %5 = load i32, ptr %3, align 4, !tbaa !16
  %6 = call noundef i32 @_ZN4cvc58internal6theory14kindToTheoryIdENS0_4kind6Kind_tE(i32 noundef %5)
  %7 = icmp ne i32 %6, 1
  br i1 %7, label %8, label %23

8:                                                ; preds = %1
  %9 = load i32, ptr %3, align 4, !tbaa !16
  %10 = icmp ne i32 %9, 5
  br i1 %10, label %11, label %23

11:                                               ; preds = %8
  %12 = load i32, ptr %3, align 4, !tbaa !16
  %13 = icmp ne i32 %12, 249
  br i1 %13, label %14, label %23

14:                                               ; preds = %11
  %15 = load i32, ptr %3, align 4, !tbaa !16
  %16 = icmp ne i32 %15, 250
  br i1 %16, label %17, label %23

17:                                               ; preds = %14
  %18 = load i32, ptr %3, align 4, !tbaa !16
  %19 = icmp ne i32 %18, 251
  br i1 %19, label %20, label %23

20:                                               ; preds = %17
  %21 = load i32, ptr %3, align 4, !tbaa !16
  %22 = icmp ne i32 %21, 136
  br label %23

23:                                               ; preds = %20, %17, %14, %11, %8, %1
  %24 = phi i1 [ false, %17 ], [ false, %14 ], [ false, %11 ], [ false, %8 ], [ false, %1 ], [ %22, %20 ]
  call void @llvm.lifetime.end.p0(i64 4, ptr %3) #3
  ret i1 %24
}

; Function Attrs: mustprogress nounwind uwtable
define linkonce_odr hidden void @_ZN4cvc58internal12NodeTemplateILb0EEC2ERKS2_(ptr noundef nonnull align 8 dereferenceable(8) %0, ptr noundef nonnull align 8 dereferenceable(8) %1) unnamed_addr #4 comdat align 2 {
  %3 = alloca ptr, align 8
  %4 = alloca ptr, align 8
  store ptr %0, ptr %3, align 8, !tbaa !8
  store ptr %1, ptr %4, align 8, !tbaa !8
  %5 = load ptr, ptr %3, align 8
  %6 = load ptr, ptr %4, align 8, !tbaa !8
  %7 = getelementptr inbounds nuw %"class.cvc5::internal::NodeTemplate", ptr %6, i32 0, i32 0
  %8 = load ptr, ptr %7, align 8, !tbaa !18
  %9 = getelementptr inbounds nuw %"class.cvc5::internal::NodeTemplate", ptr %5, i32 0, i32 0
  store ptr %8, ptr %9, align 8, !tbaa !18
  ret void
}

; Function Attrs: inlinehint mustprogress uwtable
define linkonce_odr hidden noundef zeroext i1 @_ZNK4cvc58internal12NodeTemplateILb0EE9isClosureEv(ptr noundef nonnull align 8 dereferenceable(8) %0) #6 comdat align 2 {
  %2 = alloca ptr, align 8
  store ptr %0, ptr %2, align 8, !tbaa !8
  %3 = load ptr, ptr %2, align 8
  call void @_ZNK4cvc58internal12NodeTemplateILb0EE21assertTNodeNotExpiredEv(ptr noundef nonnull align 8 dereferenceable(8) %3)
  %4 = call noundef i32 @_ZNK4cvc58internal12NodeTemplateILb0EE7getKindEv(ptr noundef nonnull align 8 dereferenceable(8) %3)
  %5 = call noundef zeroext i1 @_ZN4cvc58internal4kind13isClosureKindENS1_6Kind_tE(i32 noundef %4)
  ret i1 %5
}

; Function Attrs: mustprogress uwtable
define hidden noundef i32 @_ZNK4cvc58internal14RtfTermContext12computeValueENS0_12NodeTemplateILb0EEEjm(ptr noundef nonnull align 8 dereferenceable(8) %0, ptr noundef %1, i32 noundef %2, i64 noundef %3) unnamed_addr #5 align 2 personality ptr @__gxx_personality_v0 {
  %5 = alloca i32, align 4
  %6 = alloca ptr, align 8
  %7 = alloca ptr, align 8
  %8 = alloca i32, align 4
  %9 = alloca i64, align 8
  %10 = alloca %"class.cvc5::internal::NodeTemplate", align 8
  %11 = alloca ptr, align 8
  %12 = alloca i32, align 4
  store ptr %0, ptr %6, align 8, !tbaa !12
  store ptr %1, ptr %7, align 8, !tbaa !8
  store i32 %2, ptr %8, align 4, !tbaa !10
  store i64 %3, ptr %9, align 8, !tbaa !14
  %13 = call noundef zeroext i1 @_ZNK4cvc58internal12NodeTemplateILb0EE9isClosureEv(ptr noundef nonnull align 8 dereferenceable(8) %1)
  br i1 %13, label %14, label %22

14:                                               ; preds = %4
  %15 = load i32, ptr %8, align 4, !tbaa !10
  %16 = urem i32 %15, 2
  %17 = icmp eq i32 %16, 0
  br i1 %17, label %18, label %21

18:                                               ; preds = %14
  %19 = load i32, ptr %8, align 4, !tbaa !10
  %20 = add i32 %19, 1
  store i32 %20, ptr %5, align 4
  br label %39

21:                                               ; preds = %14
  br label %37

22:                                               ; preds = %4
  call void @_ZN4cvc58internal12NodeTemplateILb0EEC2ERKS2_(ptr noundef nonnull align 8 dereferenceable(8) %10, ptr noundef nonnull align 8 dereferenceable(8) %1)
  %23 = invoke noundef zeroext i1 @_ZN4cvc58internal14RtfTermContext21hasNestedTermChildrenENS0_12NodeTemplateILb0EEE(ptr noundef %10)
          to label %24 unwind label %31

24:                                               ; preds = %22
  call void @_ZN4cvc58internal12NodeTemplateILb0EED2Ev(ptr noundef nonnull align 8 dereferenceable(8) %10) #3
  br i1 %23, label %25, label %36

25:                                               ; preds = %24
  %26 = load i32, ptr %8, align 4, !tbaa !10
  %27 = icmp ult i32 %26, 2
  br i1 %27, label %28, label %35

28:                                               ; preds = %25
  %29 = load i32, ptr %8, align 4, !tbaa !10
  %30 = add i32 %29, 2
  store i32 %30, ptr %5, align 4
  br label %39

31:                                               ; preds = %22
  %32 = landingpad { ptr, i32 }
          cleanup
  %33 = extractvalue { ptr, i32 } %32, 0
  store ptr %33, ptr %11, align 8
  %34 = extractvalue { ptr, i32 } %32, 1
  store i32 %34, ptr %12, align 4
  call void @_ZN4cvc58internal12NodeTemplateILb0EED2Ev(ptr noundef nonnull align 8 dereferenceable(8) %10) #3
  br label %41

35:                                               ; preds = %25
  br label %36

36:                                               ; preds = %35, %24
  br label %37

37:                                               ; preds = %36, %21
  %38 = load i32, ptr %8, align 4, !tbaa !10
  store i32 %38, ptr %5, align 4
  br label %39

39:                                               ; preds = %37, %28, %18
  %40 = load i32, ptr %5, align 4
  ret i32 %40

41:                                               ; preds = %31
  %42 = load ptr, ptr %11, align 8
  %43 = load i32, ptr %12, align 4
  %44 = insertvalue { ptr, i32 } poison, ptr %42, 0
  %45 = insertvalue { ptr, i32 } %44, i32 %43, 1
  resume { ptr, i32 } %45
}