; Function Attrs: mustprogress uwtable
define hidden noundef i32 @_ZNK4cvc58internal14RtfTermContext12computeValueENS0_12NodeTemplateILb0EEEjm(ptr nonnull readnone align 8 captures(none) %0, ptr noundef readonly captures(none) %1, i32 noundef %2, i64 %3) unnamed_addr #4 align 2 personality ptr @__gxx_personality_v0 {
  %5 = load ptr, ptr %1, align 8, !tbaa !3
  %6 = getelementptr inbounds nuw i8, ptr %5, i64 8
  %7 = load i64, ptr %6, align 8
  %8 = trunc i64 %7 to i32
  %9 = and i32 %8, 1023
  %10 = tail call noundef zeroext i1 @_ZN4cvc58internal4kind13isClosureKindENS1_6Kind_tE(i32 noundef %9)
  br i1 %10, label %11, label %12

11:                                               ; preds = %4
  %spec.select = or i32 %2, 1
  br label %26

12:                                               ; preds = %4
  %13 = load ptr, ptr %1, align 8, !tbaa !3
  %14 = getelementptr inbounds nuw i8, ptr %13, i64 8
  %15 = load i64, ptr %14, align 8
  %16 = trunc i64 %15 to i32
  %17 = and i32 %16, 1023
  %18 = tail call noundef i32 @_ZN4cvc58internal6theory14kindToTheoryIdENS0_4kind6Kind_tE(i32 noundef %17)
  %19 = icmp ne i32 %18, 1
  %20 = icmp ne i32 %17, 5
  %or.cond.i = and i1 %19, %20
  %21 = add nsw i32 %17, -252
  %22 = icmp ult i32 %21, -3
  %or.cond7.i = and i1 %or.cond.i, %22
  %23 = icmp ne i32 %17, 136
  %spec.select.i = and i1 %23, %or.cond7.i
  %24 = icmp ult i32 %2, 2
  %or.cond = and i1 %24, %spec.select.i
  %25 = or disjoint i32 %2, 2
  %spec.select9 = select i1 %or.cond, i32 %25, i32 %2
  br label %26

26:                                               ; preds = %12, %11
  %.0 = phi i32 [ %spec.select, %11 ], [ %spec.select9, %12 ]
  ret i32 %.0
}